MPASM 5.68                          MAIN.ASM   4-5-2026  16:41:31         PAGE  1


LOC  OBJECT CODE     LINE SOURCE TEXT
  VALUE

                      00001  PROCESSOR 16F887
                      00002     #include <p16f887.inc>
                      00001         LIST
                      00002 
                      00003 ;==========================================================================
                      00004 ; Build date : May 15 2016
                      00005 ;  MPASM PIC16F887 processor include
                      00006 ; 
                      00007 ;  (c) Copyright 1999-2016 Microchip Technology, All rights reserved
                      00008 ;==========================================================================
                      00009 
                      00810         LIST
                      00003 
Warning[205]: Found directive in column 1. (__CONFIG)
2007   2FE2           00004 __CONFIG _CONFIG1, _HS_OSC & _WDT_OFF & _LVP_OFF & _MCLRE_ON & _PWRTE_ON
Warning[205]: Found directive in column 1. (__CONFIG)
2008   3FFF           00005 __CONFIG _CONFIG2, _BOR4V_BOR40V & _WRT_OFF
Warning[205]: Found directive in column 1. (CBLOCK)
                      00006 CBLOCK  0x190       ;GENRAL VARIABLES
  00000190            00007     COUNTER         ;0x190 addr
  00000191            00008     COUNTER_FLAG
  00000192            00009     DISP_COUNTER
  00000193            00010     DISP_DIGIT_FLAG
                      00011     
Warning[205]: Found directive in column 1. (ENDC)
                      00012 ENDC
Warning[205]: Found directive in column 1. (CBLOCK)
                      00013 CBLOCK  0x70    ;IENTERRUPT SAVE VARIABLES
  00000070            00014     W_TEMP          ;0x70
  00000071            00015     S_TEMP          ;0x71
  00000072            00016     SECOND_DIGIT    ;0x72
  00000073            00017     MINUTE_DIGIT    ;0x73
  00000074            00018     HOUR_DIGIT      ;0x74
  00000075            00019     SEC_ONES        ;0x75
  00000076            00020     SEC_TENS        ;0x76
  00000077            00021     MIN_ONES        ;0x77
  00000078            00022     MIN_TENS        ;0x78
  00000079            00023     HOUR_ONES       ;0x79
  0000007A            00024     HOUR_TENS       ;0x7A
  0000007B            00025     TEMP_VAR        ;0x7B
Warning[205]: Found directive in column 1. (ENDC)
                      00026 ENDC
                      00027 ;RESET_VECTOR
                      00028     org 0x00
0000   2???           00029     GOTO MAIN_INIT
                      00030 ;INTERRUPT_VECTOR
                      00031     org 0x04
0004   00F0           00032     MOVWF W_TEMP
0005   0E03           00033     SWAPF STATUS,W
0006   00F1           00034     MOVWF S_TEMP
                      00035     
0007   1283 1303      00036     BANKSEL PIR1
0009   180C           00037     BTFSC PIR1,0
MPASM 5.68                          MAIN.ASM   4-5-2026  16:41:31         PAGE  2


LOC  OBJECT CODE     LINE SOURCE TEXT
  VALUE

000A   2???           00038     GOTO TIMER1_INC
                      00039     
                      00040     ;EACH 1MS we will change what PORTD sends to the displays
000B   190B           00041     BTFSC INTCON,2
000C   2???           00042     GOTO TIMER0_LOGIC
                      00043     
                      00044     
000D   2???           00045     GOTO ISR_EXIT
                      00046     
000E                  00047 TIMER1_INC:
000E   100C           00048     BCF PIR1,0
000F   1683 1703      00049     BANKSEL COUNTER
Message[302]: Register in operand not in bank 0.  Ensure that bank bits are correct.
0011   0A90           00050     INCF COUNTER,F
Message[302]: Register in operand not in bank 0.  Ensure that bank bits are correct.
0012   1411           00051     BSF COUNTER_FLAG,0
0013   2???           00052     GOTO ISR_EXIT
                      00053     
0014                  00054 TIMER0_LOGIC:
0014   110B           00055     BCF INTCON,2
0015   1683 1703      00056     BANKSEL DISP_COUNTER
Message[302]: Register in operand not in bank 0.  Ensure that bank bits are correct.
0017   0A92           00057     INCF DISP_COUNTER,F
Message[302]: Register in operand not in bank 0.  Ensure that bank bits are correct.
0018   0812           00058     MOVFW DISP_COUNTER
0019   3C06           00059     SUBLW 6
001A   1D03           00060     BTFSS STATUS,2
Message[302]: Register in operand not in bank 0.  Ensure that bank bits are correct.
001B   0192           00061     CLRF DISP_COUNTER
001C   2???           00062     CALL DISP_OK
Message[302]: Register in operand not in bank 0.  Ensure that bank bits are correct.
001D   0093           00063     MOVWF DISP_DIGIT_FLAG
001E   2???           00064     GOTO ISR_EXIT
                      00065     
001F                  00066 DISP_OK:
Message[302]: Register in operand not in bank 0.  Ensure that bank bits are correct.
001F   0812           00067     MOVF DISP_COUNTER,W
0020   0782           00068     ADDWF PCL,F
0021   3401           00069     RETLW b'00000001'   ;SEC DIGIT ONES
0022   3402           00070     RETLW b'00000010'   ;SEC DIGIT TENS
0023   3404           00071     RETLW b'00000100'   ;MIN DIGIT ONES
0024   3408           00072     RETLW b'00001000'   ;MIN DIGIT TENS
0025   3410           00073     RETLW b'00010000'   ;HR DIGIT ONES
0026   3420           00074     RETLW b'00100000'   ;HR DIGIT TENS
                      00075     
                      00076     
0027                  00077 ISR_EXIT:
0027   0E71           00078     SWAPF S_TEMP,W
0028   0083           00079     MOVWF STATUS
0029   0EF0           00080     SWAPF W_TEMP,F
002A   0E70           00081     SWAPF W_TEMP,W
002B   0009           00082     RETFIE  
                      00083 ;MAIN_CODE
MPASM 5.68                          MAIN.ASM   4-5-2026  16:41:31         PAGE  3


LOC  OBJECT CODE     LINE SOURCE TEXT
  VALUE

                      00084     org 0x50
0050                  00085 MAIN_INIT:
0050   1683 1703      00086     BANKSEL ANSEL
Message[302]: Register in operand not in bank 0.  Ensure that bank bits are correct.
0052   0188           00087     CLRF ANSEL
Message[302]: Register in operand not in bank 0.  Ensure that bank bits are correct.
0053   0189           00088     CLRF ANSELH
                      00089     
0054   1683 1303      00090     BANKSEL TRISD
Message[302]: Register in operand not in bank 0.  Ensure that bank bits are correct.
0056   0188           00091     CLRF TRISD      ;USED FOR DISPLAY SHOW
Message[302]: Register in operand not in bank 0.  Ensure that bank bits are correct.
0057   0186           00092     CLRF TRISB      ;USED FOR CONTROLLING THE DIGITS
                      00093     
0058   178B           00094     BSF INTCON,7    ;GIE EN
0059   170B           00095     BSF INTCON,6    ;PEIE EN
                      00096     
                      00097     
                      00098     ;SETUP TIMER1
005A   1683 1303      00099     BANKSEL PIE1
Message[302]: Register in operand not in bank 0.  Ensure that bank bits are correct.
005C   140C           00100     BSF PIE1,0      ;EN TMR1 OVF
                      00101     
005D   1283 1303      00102     BANKSEL T1CON
005F   1690           00103     BSF T1CON,5     ;PCS IS SET TO 8
0060   1610           00104     BSF T1CON,4
0061   1090           00105     BCF T1CON,1     ;INTERNAL CLK 
0062   1410           00106     BSF T1CON,0     ;TIM1 ON
                      00107     ;TIMER1 END
                      00108     
                      00109     ;TIMER0 SETUP
0063   1683 1303      00110     BANKSEL OPTION_REG
Message[302]: Register in operand not in bank 0.  Ensure that bank bits are correct.
0065   1281           00111     BCF OPTION_REG,5
Message[302]: Register in operand not in bank 0.  Ensure that bank bits are correct.
0066   1181           00112     BCF OPTION_REG,3
Message[302]: Register in operand not in bank 0.  Ensure that bank bits are correct.
0067   1501           00113     BSF OPTION_REG,2
Message[302]: Register in operand not in bank 0.  Ensure that bank bits are correct.
0068   1081           00114     BCF OPTION_REG,1
Message[302]: Register in operand not in bank 0.  Ensure that bank bits are correct.
0069   1001           00115     BCF OPTION_REG,0        ;32 PCS so every 1.63 ms the timer0 will OVF and ISR will occurs
                      00116     
006A   168B           00117     BSF INTCON,5
                      00118     ;TIMER0 END
006B   2???           00119     GOTO MAIN_LOOP
                      00120     
006C                  00121 MAIN_LOOP:
006C   1683 1703      00122     BANKSEL COUNTER_FLAG
Message[302]: Register in operand not in bank 0.  Ensure that bank bits are correct.
006E   1811           00123     BTFSC COUNTER_FLAG,0
006F   2???           00124     CALL COUNTER_LOGIC
                      00125     
MPASM 5.68                          MAIN.ASM   4-5-2026  16:41:31         PAGE  4


LOC  OBJECT CODE     LINE SOURCE TEXT
  VALUE

0070   0872           00126     MOVF SECOND_DIGIT,W
0071   3C60           00127     SUBLW 60
0072   1903           00128     BTFSC STATUS,2
0073   2???           00129     CALL SEC_MIN_INC
                      00130     
0074   0873           00131     MOVF MINUTE_DIGIT,W
0075   3C60           00132     SUBLW 60
0076   1903           00133     BTFSC STATUS,2
0077   2???           00134     CALL MIN_HR_INC
                      00135     
0078   0874           00136    MOVF HOUR_DIGIT,W
0079   3C24           00137     SUBLW 24
007A   1903           00138     BTFSC STATUS,2
007B   2???           00139     CALL HOUR_RESET
007C   2???           00140     CALL SPLIT
                      00141     
007D   2???           00142     CALL DIGIT_DISP
007E   2???           00143     GOTO MAIN_LOOP
                      00144     
007F                  00145 COUNTER_LOGIC:
007F   1683 1703      00146     BANKSEL COUNTER_FLAG
Message[302]: Register in operand not in bank 0.  Ensure that bank bits are correct.
0081   0191           00147     CLRF COUNTER_FLAG
0082   3010           00148     MOVLW 10
Message[302]: Register in operand not in bank 0.  Ensure that bank bits are correct.
0083   0210           00149     SUBWF COUNTER,W
0084   1D03           00150     BTFSS STATUS,2
0085   0008           00151     RETURN
Message[302]: Register in operand not in bank 0.  Ensure that bank bits are correct.
0086   0190           00152     CLRF COUNTER
0087   0AF2           00153     INCF SECOND_DIGIT,F
0088   0008           00154     RETURN
                      00155 
0089                  00156 SEC_MIN_INC:
0089   01F2           00157     CLRF SECOND_DIGIT
008A   0AF3           00158     INCF MINUTE_DIGIT,F
008B   0008           00159     RETURN
                      00160   
008C                  00161 MIN_HR_INC:
008C   01F3           00162     CLRF MINUTE_DIGIT
008D   0AF4           00163     INCF HOUR_DIGIT,F
008E   0008           00164     RETURN
                      00165     
008F                  00166 HOUR_RESET:
008F   01F4           00167     CLRF HOUR_DIGIT
0090   0008           00168     RETURN
                      00169     
0091                  00170 SPLIT:
                      00171     ;SECONDS
0091   01F6           00172     CLRF SEC_TENS
0092   0872           00173     MOVF SECOND_DIGIT,W
0093   00FB           00174     MOVWF TEMP_VAR
0094                  00175 SEC_LOOP:
MPASM 5.68                          MAIN.ASM   4-5-2026  16:41:31         PAGE  5


LOC  OBJECT CODE     LINE SOURCE TEXT
  VALUE

0094   300A           00176     MOVLW d'10'
0095   02FB           00177     SUBWF TEMP_VAR,F
0096   1C03           00178     BTFSS STATUS,C
0097   2???           00179     GOTO SEC_DONE
0098   0AF6           00180     INCF SEC_TENS,F
0099   2???           00181     GOTO SEC_LOOP
009A                  00182 SEC_DONE:
009A   300A           00183     MOVLW d'10'
009B   077B           00184     ADDWF TEMP_VAR,W
009C   00F5           00185     MOVWF SEC_ONES
                      00186 
                      00187     ;MINUTES
009D   01F8           00188     CLRF MIN_TENS
009E   0873           00189     MOVF MINUTE_DIGIT,W
009F   00FB           00190     MOVWF TEMP_VAR
00A0                  00191 MIN_LOOP:
00A0   300A           00192     MOVLW d'10'
00A1   02FB           00193     SUBWF TEMP_VAR,F
00A2   1C03           00194     BTFSS STATUS,C
00A3   2???           00195     GOTO MIN_DONE
00A4   0AF8           00196     INCF MIN_TENS,F
00A5   2???           00197     GOTO MIN_LOOP
00A6                  00198 MIN_DONE:
00A6   300A           00199     MOVLW d'10'
00A7   077B           00200     ADDWF TEMP_VAR,W
00A8   00F7           00201     MOVWF MIN_ONES
                      00202 
                      00203     ;HOURS
00A9   01FA           00204     CLRF HOUR_TENS
00AA   0874           00205     MOVF HOUR_DIGIT,W
00AB   00FB           00206     MOVWF TEMP_VAR
00AC                  00207 HOUR_LOOP:
00AC   300A           00208     MOVLW d'10'
00AD   02FB           00209     SUBWF TEMP_VAR,F
00AE   1C03           00210     BTFSS STATUS,C
00AF   2???           00211     GOTO HOUR_DONE
00B0   0AFA           00212     INCF HOUR_TENS,F
00B1   2???           00213     GOTO HOUR_LOOP
00B2                  00214 HOUR_DONE:
00B2   300A           00215     MOVLW d'10'
00B3   077B           00216     ADDWF TEMP_VAR,W
00B4   00F9           00217     MOVWF HOUR_ONES
                      00218 
00B5   0008           00219     RETURN
                      00220     
                      00221     
00B6                  00222 DIGIT_DISP:         ;to select which digit show the number
00B6   1683 1703      00223     BANKSEL DISP_DIGIT_FLAG
Message[302]: Register in operand not in bank 0.  Ensure that bank bits are correct.
00B8   1813           00224     BTFSC DISP_DIGIT_FLAG,0
00B9   2???           00225     CALL DIGIT_0
Message[302]: Register in operand not in bank 0.  Ensure that bank bits are correct.
00BA   1893           00226     BTFSC DISP_DIGIT_FLAG,1
MPASM 5.68                          MAIN.ASM   4-5-2026  16:41:31         PAGE  6


LOC  OBJECT CODE     LINE SOURCE TEXT
  VALUE

00BB   2???           00227     CALL DIGIT_1
Message[302]: Register in operand not in bank 0.  Ensure that bank bits are correct.
00BC   1913           00228     BTFSC DISP_DIGIT_FLAG,2
00BD   2???           00229     CALL DIGIT_2
Message[302]: Register in operand not in bank 0.  Ensure that bank bits are correct.
00BE   1993           00230     BTFSC DISP_DIGIT_FLAG,3
00BF   2???           00231     CALL DIGIT_3
Message[302]: Register in operand not in bank 0.  Ensure that bank bits are correct.
00C0   1A13           00232     BTFSC DISP_DIGIT_FLAG,4
00C1   2???           00233     CALL DIGIT_4
Message[302]: Register in operand not in bank 0.  Ensure that bank bits are correct.
00C2   1A93           00234     BTFSC DISP_DIGIT_FLAG,5
00C3   2???           00235     CALL DIGIT_5
                      00236     
00C4   0008           00237     RETURN
                      00238     
00C5                  00239 DIGIT_0:
00C5   1683 1703      00240     BANKSEL DISP_DIGIT_FLAG
Message[302]: Register in operand not in bank 0.  Ensure that bank bits are correct.
00C7   0193           00241     CLRF DISP_DIGIT_FLAG
00C8   0875           00242     MOVF SEC_ONES,W
00C9   2???           00243     CALL SEG_LOOKUP
00CA   3AFF           00244     XORLW b'11111111'   ;since the second ones digit is common anode we have to invert the bits
00CB   1283 1303      00245     BANKSEL PORTD
00CD   0088           00246     MOVWF PORTD
                      00247     
00CE   303D           00248     MOVLW b'00111101'
00CF   0086           00249     MOVWF PORTB
00D0   0008           00250     RETURN
                      00251     
00D1                  00252 DIGIT_1:
00D1   1683 1703      00253     BANKSEL DISP_DIGIT_FLAG
Message[302]: Register in operand not in bank 0.  Ensure that bank bits are correct.
00D3   0193           00254     CLRF DISP_DIGIT_FLAG
00D4   0876           00255     MOVF SEC_TENS,W
00D5   2???           00256     CALL SEG_LOOKUP
00D6   3AFF           00257     XORLW b'11111111'   ;since the second TENS digit is common anode we have to invert the bits, same as
                             second ones
00D7   1283 1303      00258     BANKSEL PORTD
00D9   0088           00259     MOVWF PORTD
00DA   303E           00260     MOVLW b'00111110'
00DB   0086           00261     MOVWF PORTB
00DC   0008           00262     RETURN
                      00263     
00DD                  00264 DIGIT_2:
00DD   1683 1703      00265     BANKSEL DISP_DIGIT_FLAG
Message[302]: Register in operand not in bank 0.  Ensure that bank bits are correct.
00DF   0193           00266     CLRF DISP_DIGIT_FLAG
00E0   0877           00267     MOVF MIN_ONES,W
00E1   2???           00268     CALL SEG_LOOKUP
00E2   1283 1303      00269     BANKSEL PORTD
00E4   0088           00270     MOVWF PORTD
00E5   3038           00271     MOVLW b'00111000'
MPASM 5.68                          MAIN.ASM   4-5-2026  16:41:31         PAGE  7


LOC  OBJECT CODE     LINE SOURCE TEXT
  VALUE

00E6   0086           00272     MOVWF PORTB
00E7   0008           00273     RETURN
                      00274     
00E8                  00275 DIGIT_3:
00E8   1683 1703      00276     BANKSEL DISP_DIGIT_FLAG
Message[302]: Register in operand not in bank 0.  Ensure that bank bits are correct.
00EA   0193           00277     CLRF DISP_DIGIT_FLAG
00EB   0878           00278     MOVF MIN_TENS,W
00EC   2???           00279     CALL SEG_LOOKUP
00ED   1283 1303      00280     BANKSEL PORTD
00EF   0088           00281     MOVWF PORTD
00F0   3034           00282     MOVLW b'00110100'
00F1   0086           00283     MOVWF PORTB
00F2   0008           00284     RETURN
                      00285     
00F3                  00286 DIGIT_4:
00F3   1683 1703      00287     BANKSEL DISP_DIGIT_FLAG
Message[302]: Register in operand not in bank 0.  Ensure that bank bits are correct.
00F5   0193           00288     CLRF DISP_DIGIT_FLAG
00F6   0879           00289     MOVF HOUR_ONES,W
00F7   2???           00290     CALL SEG_LOOKUP
00F8   1283 1303      00291     BANKSEL PORTD
00FA   0088           00292     MOVWF PORTD
00FB   302C           00293     MOVLW b'00101100'
00FC   0086           00294     MOVWF PORTB
00FD   0008           00295     RETURN
                      00296     
00FE                  00297 DIGIT_5:
00FE   1683 1703      00298     BANKSEL DISP_DIGIT_FLAG
Message[302]: Register in operand not in bank 0.  Ensure that bank bits are correct.
0100   0193           00299     CLRF DISP_DIGIT_FLAG
0101   087A           00300     MOVF HOUR_TENS,W
0102   2???           00301     CALL SEG_LOOKUP
0103   1283 1303      00302     BANKSEL PORTD
0105   0088           00303     MOVWF PORTD
0106   301C           00304     MOVLW b'00011100'
0107   0086           00305     MOVWF PORTB
0108   0008           00306     RETURN
                      00307     
0109                  00308 SEG_LOOKUP:
0109   0782           00309     ADDWF PCL,F
                      00310     
010A   343F           00311     RETLW b'00111111' ;0
010B   3406           00312     RETLW b'00000110' ;1
010C   345B           00313     RETLW b'01011011' ;2
010D   344F           00314     RETLW b'01001111' ;3
010E   3466           00315     RETLW b'01100110' ;4
010F   346D           00316     RETLW b'01101101' ;5
0110   347D           00317     RETLW b'01111101' ;6
0111   3407           00318     RETLW b'00000111' ;7
0112   347F           00319     RETLW b'01111111' ;8
0113   346F           00320     RETLW b'01101111' ;9
Warning[205]: Found directive in column 1. (END)
MPASM 5.68                          MAIN.ASM   4-5-2026  16:41:31         PAGE  8


LOC  OBJECT CODE     LINE SOURCE TEXT
  VALUE

2FE2 3FFF             00321 END
MPASM 5.68                          MAIN.ASM   4-5-2026  16:41:31         PAGE  9


SYMBOL TABLE
  LABEL                             VALUE 

ABDEN                             00000000
ABDOVF                            00000007
ACKDT                             00000005
ACKEN                             00000004
ACKSTAT                           00000006
ADCON0                            0000001F
ADCON1                            0000009F
ADCS0                             00000006
ADCS1                             00000007
ADDEN                             00000003
ADFM                              00000007
ADIE                              00000006
ADIF                              00000006
ADON                              00000000
ADRESH                            0000001E
ADRESL                            0000009E
ANS0                              00000000
ANS1                              00000001
ANS10                             00000002
ANS11                             00000003
ANS12                             00000004
ANS13                             00000005
ANS2                              00000002
ANS3                              00000003
ANS4                              00000004
ANS5                              00000005
ANS6                              00000006
ANS7                              00000007
ANS8                              00000000
ANS9                              00000001
ANSEL                             00000188
ANSELH                            00000189
BAUDCTL                           00000187
BCLIE                             00000003
BCLIF                             00000003
BF                                00000000
BRG0                              00000000
BRG1                              00000001
BRG10                             00000002
BRG11                             00000003
BRG12                             00000004
BRG13                             00000005
BRG14                             00000006
BRG15                             00000007
BRG16                             00000003
BRG2                              00000002
BRG3                              00000003
BRG4                              00000004
BRG5                              00000005
BRG6                              00000006
BRG7                              00000007
BRG8                              00000000
BRG9                              00000001
MPASM 5.68                          MAIN.ASM   4-5-2026  16:41:31         PAGE 10


SYMBOL TABLE
  LABEL                             VALUE 

BRGH                              00000002
C                                 00000000
C1CH0                             00000000
C1CH1                             00000001
C1IE                              00000005
C1IF                              00000005
C1OE                              00000005
C1ON                              00000007
C1OUT                             00000006
C1POL                             00000004
C1R                               00000002
C1RSEL                            00000005
C1SEN                             00000005
C2CH0                             00000000
C2CH1                             00000001
C2IE                              00000006
C2IF                              00000006
C2OE                              00000005
C2ON                              00000007
C2OUT                             00000006
C2POL                             00000004
C2R                               00000002
C2REN                             00000004
C2RSEL                            00000004
C2SYNC                            00000000
CCP1CON                           00000017
CCP1IE                            00000002
CCP1IF                            00000002
CCP1M0                            00000000
CCP1M1                            00000001
CCP1M2                            00000002
CCP1M3                            00000003
CCP1X                             00000005
CCP1Y                             00000004
CCP2CON                           0000001D
CCP2IE                            00000000
CCP2IF                            00000000
CCP2M0                            00000000
CCP2M1                            00000001
CCP2M2                            00000002
CCP2M3                            00000003
CCP2X                             00000005
CCP2Y                             00000004
CCPR1                             00000015
CCPR1H                            00000016
CCPR1L                            00000015
CCPR2                             0000001B
CCPR2H                            0000001C
CCPR2L                            0000001B
CHS0                              00000002
CHS1                              00000003
CHS2                              00000004
CHS3                              00000005
MPASM 5.68                          MAIN.ASM   4-5-2026  16:41:31         PAGE 11


SYMBOL TABLE
  LABEL                             VALUE 

CKE                               00000006
CKP                               00000004
CM1CON0                           00000107
CM2CON0                           00000108
CM2CON1                           00000109
COUNTER                           00000190
COUNTER_FLAG                      00000191
COUNTER_LOGIC                     0000007F
CREN                              00000004
CSRC                              00000007
D                                 00000005
DATA_ADDRESS                      00000005
DC                                00000001
DC1B0                             00000004
DC1B1                             00000005
DC2B0                             00000004
DC2B1                             00000005
DIGIT_0                           000000C5
DIGIT_1                           000000D1
DIGIT_2                           000000DD
DIGIT_3                           000000E8
DIGIT_4                           000000F3
DIGIT_5                           000000FE
DIGIT_DISP                        000000B6
DISP_COUNTER                      00000192
DISP_DIGIT_FLAG                   00000193
DISP_OK                           0000001F
D_A                               00000005
D_NOT_A                           00000005
ECCPAS                            0000009C
ECCPAS0                           00000004
ECCPAS1                           00000005
ECCPAS2                           00000006
ECCPASE                           00000007
EEADR                             0000010D
EEADRH                            0000010F
EECON1                            0000018C
EECON2                            0000018D
EEDAT                             0000010C
EEDATA                            0000010C
EEDATH                            0000010E
EEIE                              00000004
EEIF                              00000004
EEPGD                             00000007
F                                 00000001
FERR                              00000002
FSR                               00000004
FVREN                             00000000
GCEN                              00000007
GIE                               00000007
GO                                00000001
GO_DONE                           00000001
GO_NOT_DONE                       00000001
MPASM 5.68                          MAIN.ASM   4-5-2026  16:41:31         PAGE 12


SYMBOL TABLE
  LABEL                             VALUE 

HOUR_DIGIT                        00000074
HOUR_DONE                         000000B2
HOUR_LOOP                         000000AC
HOUR_ONES                         00000079
HOUR_RESET                        0000008F
HOUR_TENS                         0000007A
HTS                               00000002
I2C_DATA                          00000005
I2C_READ                          00000002
I2C_START                         00000003
I2C_STOP                          00000004
INDF                              00000000
INTCON                            0000000B
INTE                              00000004
INTEDG                            00000006
INTF                              00000001
IOCB                              00000096
IOCB0                             00000000
IOCB1                             00000001
IOCB2                             00000002
IOCB3                             00000003
IOCB4                             00000004
IOCB5                             00000005
IOCB6                             00000006
IOCB7                             00000007
IRCF0                             00000004
IRCF1                             00000005
IRCF2                             00000006
IRP                               00000007
ISR_EXIT                          00000027
LTS                               00000001
MAIN_INIT                         00000050
MAIN_LOOP                         0000006C
MC1OUT                            00000007
MC2OUT                            00000006
MINUTE_DIGIT                      00000073
MIN_DONE                          000000A6
MIN_HR_INC                        0000008C
MIN_LOOP                          000000A0
MIN_ONES                          00000077
MIN_TENS                          00000078
MSK                               00000093
MSK0                              00000000
MSK1                              00000001
MSK2                              00000002
MSK3                              00000003
MSK4                              00000004
MSK5                              00000005
MSK6                              00000006
MSK7                              00000007
NOT_A                             00000005
NOT_ADDRESS                       00000005
NOT_BO                            00000000
MPASM 5.68                          MAIN.ASM   4-5-2026  16:41:31         PAGE 13


SYMBOL TABLE
  LABEL                             VALUE 

NOT_BOR                           00000000
NOT_DONE                          00000001
NOT_PD                            00000003
NOT_POR                           00000001
NOT_RBPU                          00000007
NOT_RC8                           00000006
NOT_T1SYNC                        00000002
NOT_TO                            00000004
NOT_TX8                           00000006
NOT_W                             00000002
NOT_WRITE                         00000002
OERR                              00000001
OPTION_REG                        00000081
OSCCON                            0000008F
OSCTUNE                           00000090
OSFIE                             00000007
OSFIF                             00000007
OSTS                              00000003
P                                 00000004
P1M0                              00000006
P1M1                              00000007
PCL                               00000002
PCLATH                            0000000A
PCON                              0000008E
PDC0                              00000000
PDC1                              00000001
PDC2                              00000002
PDC3                              00000003
PDC4                              00000004
PDC5                              00000005
PDC6                              00000006
PEIE                              00000006
PEN                               00000002
PIE1                              0000008C
PIE2                              0000008D
PIR1                              0000000C
PIR2                              0000000D
PORTA                             00000005
PORTB                             00000006
PORTC                             00000007
PORTD                             00000008
PORTE                             00000009
PR2                               00000092
PRSEN                             00000007
PS0                               00000000
PS1                               00000001
PS2                               00000002
PSA                               00000003
PSSAC0                            00000002
PSSAC1                            00000003
PSSBD0                            00000000
PSSBD1                            00000001
PSTRCON                           0000009D
MPASM 5.68                          MAIN.ASM   4-5-2026  16:41:31         PAGE 14


SYMBOL TABLE
  LABEL                             VALUE 

PULSR                             00000002
PULSS                             00000003
PWM1CON                           0000009B
R                                 00000002
RA0                               00000000
RA1                               00000001
RA2                               00000002
RA3                               00000003
RA4                               00000004
RA5                               00000005
RA6                               00000006
RA7                               00000007
RB0                               00000000
RB1                               00000001
RB2                               00000002
RB3                               00000003
RB4                               00000004
RB5                               00000005
RB6                               00000006
RB7                               00000007
RBIE                              00000003
RBIF                              00000000
RC0                               00000000
RC1                               00000001
RC2                               00000002
RC3                               00000003
RC4                               00000004
RC5                               00000005
RC6                               00000006
RC7                               00000007
RC8_9                             00000006
RC9                               00000006
RCD8                              00000000
RCEN                              00000003
RCIDL                             00000006
RCIE                              00000005
RCIF                              00000005
RCREG                             0000001A
RCSTA                             00000018
RD                                00000000
RD0                               00000000
RD1                               00000001
RD2                               00000002
RD3                               00000003
RD4                               00000004
RD5                               00000005
RD6                               00000006
RD7                               00000007
RE0                               00000000
RE1                               00000001
RE2                               00000002
RE3                               00000003
READ_WRITE                        00000002
MPASM 5.68                          MAIN.ASM   4-5-2026  16:41:31         PAGE 15


SYMBOL TABLE
  LABEL                             VALUE 

RP0                               00000005
RP1                               00000006
RSEN                              00000001
RX9                               00000006
RX9D                              00000000
R_NOT_W                           00000002
R_W                               00000002
S                                 00000003
SBOREN                            00000004
SCKP                              00000004
SCS                               00000000
SECOND_DIGIT                      00000072
SEC_DONE                          0000009A
SEC_LOOP                          00000094
SEC_MIN_INC                       00000089
SEC_ONES                          00000075
SEC_TENS                          00000076
SEG_LOOKUP                        00000109
SEN                               00000000
SENDB                             00000003
SMP                               00000007
SPBRG                             00000099
SPBRGH                            0000009A
SPEN                              00000007
SPLIT                             00000091
SR0                               00000006
SR1                               00000007
SRCON                             00000185
SREN                              00000005
SSPADD                            00000093
SSPBUF                            00000013
SSPCON                            00000014
SSPCON2                           00000091
SSPEN                             00000005
SSPIE                             00000003
SSPIF                             00000003
SSPM0                             00000000
SSPM1                             00000001
SSPM2                             00000002
SSPM3                             00000003
SSPMSK                            00000093
SSPOV                             00000006
SSPSTAT                           00000094
STATUS                            00000003
STRA                              00000000
STRB                              00000001
STRC                              00000002
STRD                              00000003
STRSYNC                           00000004
SWDTEN                            00000000
SYNC                              00000004
S_TEMP                            00000071
T0CS                              00000005
MPASM 5.68                          MAIN.ASM   4-5-2026  16:41:31         PAGE 16


SYMBOL TABLE
  LABEL                             VALUE 

T0IE                              00000005
T0IF                              00000002
T0SE                              00000004
T1CKPS0                           00000004
T1CKPS1                           00000005
T1CON                             00000010
T1GINV                            00000007
T1GIV                             00000007
T1GSS                             00000001
T1INSYNC                          00000002
T1OSCEN                           00000003
T1SYNC                            00000002
T2CKPS0                           00000000
T2CKPS1                           00000001
T2CON                             00000012
TEMP_VAR                          0000007B
TIMER0_LOGIC                      00000014
TIMER1_INC                        0000000E
TMR0                              00000001
TMR0IE                            00000005
TMR0IF                            00000002
TMR1                              0000000E
TMR1CS                            00000001
TMR1GE                            00000006
TMR1H                             0000000F
TMR1IE                            00000000
TMR1IF                            00000000
TMR1L                             0000000E
TMR1ON                            00000000
TMR2                              00000011
TMR2IE                            00000001
TMR2IF                            00000001
TMR2ON                            00000002
TOUTPS0                           00000003
TOUTPS1                           00000004
TOUTPS2                           00000005
TOUTPS3                           00000006
TRISA                             00000085
TRISA0                            00000000
TRISA1                            00000001
TRISA2                            00000002
TRISA3                            00000003
TRISA4                            00000004
TRISA5                            00000005
TRISA6                            00000006
TRISA7                            00000007
TRISB                             00000086
TRISB0                            00000000
TRISB1                            00000001
TRISB2                            00000002
TRISB3                            00000003
TRISB4                            00000004
TRISB5                            00000005
MPASM 5.68                          MAIN.ASM   4-5-2026  16:41:31         PAGE 17


SYMBOL TABLE
  LABEL                             VALUE 

TRISB6                            00000006
TRISB7                            00000007
TRISC                             00000087
TRISC0                            00000000
TRISC1                            00000001
TRISC2                            00000002
TRISC3                            00000003
TRISC4                            00000004
TRISC5                            00000005
TRISC6                            00000006
TRISC7                            00000007
TRISD                             00000088
TRISD0                            00000000
TRISD1                            00000001
TRISD2                            00000002
TRISD3                            00000003
TRISD4                            00000004
TRISD5                            00000005
TRISD6                            00000006
TRISD7                            00000007
TRISE                             00000089
TRISE0                            00000000
TRISE1                            00000001
TRISE2                            00000002
TRISE3                            00000003
TRMT                              00000001
TUN0                              00000000
TUN1                              00000001
TUN2                              00000002
TUN3                              00000003
TUN4                              00000004
TX8_9                             00000006
TX9                               00000006
TX9D                              00000000
TXD8                              00000000
TXEN                              00000005
TXIE                              00000004
TXIF                              00000004
TXREG                             00000019
TXSTA                             00000098
UA                                00000001
ULPWUE                            00000005
ULPWUIE                           00000002
ULPWUIF                           00000002
VCFG0                             00000004
VCFG1                             00000005
VR0                               00000000
VR1                               00000001
VR2                               00000002
VR3                               00000003
VRCON                             00000097
VREN                              00000007
VROE                              00000006
MPASM 5.68                          MAIN.ASM   4-5-2026  16:41:31         PAGE 18


SYMBOL TABLE
  LABEL                             VALUE 

VRR                               00000005
VRSS                              00000004
W                                 00000000
WCOL                              00000007
WDTCON                            00000105
WDTPS0                            00000001
WDTPS1                            00000002
WDTPS2                            00000003
WDTPS3                            00000004
WPUB                              00000095
WPUB0                             00000000
WPUB1                             00000001
WPUB2                             00000002
WPUB3                             00000003
WPUB4                             00000004
WPUB5                             00000005
WPUB6                             00000006
WPUB7                             00000007
WR                                00000001
WREN                              00000002
WRERR                             00000003
WUE                               00000001
W_TEMP                            00000070
Z                                 00000002
_BOR21V                           00003EFF
_BOR40V                           00003FFF
_BOR4V_BOR21V                     00003EFF
_BOR4V_BOR40V                     00003FFF
_BOREN_NSLEEP                     00003EFF
_BOREN_OFF                        00003CFF
_BOREN_ON                         00003FFF
_BOREN_SBODEN                     00003DFF
_BOR_NSLEEP                       00003EFF
_BOR_OFF                          00003CFF
_BOR_ON                           00003FFF
_BOR_SBODEN                       00003DFF
_CONFIG1                          00002007
_CONFIG2                          00002008
_CPD_OFF                          00003FFF
_CPD_ON                           00003F7F
_CP_OFF                           00003FFF
_CP_ON                            00003FBF
_DEBUG_OFF                        00003FFF
_DEBUG_ON                         00001FFF
_DEVID1                           00002006
_EC_OSC                           00003FFB
_EXTRC                            00003FFF
_EXTRCIO                          00003FFE
_EXTRC_OSC_CLKOUT                 00003FFF
_EXTRC_OSC_NOCLKOUT               00003FFE
_FCMEN_OFF                        000037FF
_FCMEN_ON                         00003FFF
_FOSC_EC                          00003FFB
MPASM 5.68                          MAIN.ASM   4-5-2026  16:41:31         PAGE 19


SYMBOL TABLE
  LABEL                             VALUE 

_FOSC_EXTRC_CLKOUT                00003FFF
_FOSC_EXTRC_NOCLKOUT              00003FFE
_FOSC_HS                          00003FFA
_FOSC_INTRC_CLKOUT                00003FFD
_FOSC_INTRC_NOCLKOUT              00003FFC
_FOSC_LP                          00003FF8
_FOSC_XT                          00003FF9
_HS_OSC                           00003FFA
_IDLOC0                           00002000
_IDLOC1                           00002001
_IDLOC2                           00002002
_IDLOC3                           00002003
_IESO_OFF                         00003BFF
_IESO_ON                          00003FFF
_INTOSC                           00003FFD
_INTOSCIO                         00003FFC
_INTRC_OSC_CLKOUT                 00003FFD
_INTRC_OSC_NOCLKOUT               00003FFC
_LP_OSC                           00003FF8
_LVP_OFF                          00002FFF
_LVP_ON                           00003FFF
_MCLRE_OFF                        00003FDF
_MCLRE_ON                         00003FFF
_PWRTE_OFF                        00003FFF
_PWRTE_ON                         00003FEF
_WDTE_OFF                         00003FF7
_WDTE_ON                          00003FFF
_WDT_OFF                          00003FF7
_WDT_ON                           00003FFF
_WRT_1FOURTH                      00003BFF
_WRT_256                          00003DFF
_WRT_HALF                         000039FF
_WRT_OFF                          00003FFF
_XT_OSC                           00003FF9
__16F887                          00000001

Errors   :     0
Warnings :     7 reported,     0 suppressed
Messages :    33 reported,     0 suppressed

